target datalayout = "e-m:e-p270:32:32-p271:32:32-p272:64:64-i64:64-i128:128-f80:128-n8:16:32:64-S128"
target triple = "x86_64-unknown-linux-gnu"

%"class.icu_75::PossibleWord" = type { i32, i32, i32, i32, i32, [20 x i32], [20 x i32] }

; Function Attrs: mustprogress uwtable
define noundef i32 @_ZN6icu_7512PossibleWord10candidatesEP5UTextPNS_17DictionaryMatcherEi(ptr noundef nonnull align 4 dereferenceable(180) %this, ptr noundef %text, ptr noundef %dict, i32 noundef %rangeEnd) #0 align 2 {
entry:
  %this.addr = alloca ptr, align 8
  %text.addr = alloca ptr, align 8
  %dict.addr = alloca ptr, align 8
  %rangeEnd.addr = alloca i32, align 4
  %start = alloca i32, align 4
  store ptr %this, ptr %this.addr, align 8
  store ptr %text, ptr %text.addr, align 8
  store ptr %dict, ptr %dict.addr, align 8
  store i32 %rangeEnd, ptr %rangeEnd.addr, align 4
  %this1 = load ptr, ptr %this.addr, align 8
  %0 = load ptr, ptr %text.addr, align 8
  %call = call i64 @utext_getNativeIndex_75(ptr noundef %0)
  %conv = trunc i64 %call to i32
  store i32 %conv, ptr %start, align 4
  %1 = load i32, ptr %start, align 4
  %offset = getelementptr inbounds %"class.icu_75::PossibleWord", ptr %this1, i32 0, i32 2
  %2 = load i32, ptr %offset, align 4
  %cmp = icmp ne i32 %1, %2
  br i1 %cmp, label %if.then, label %if.end9

if.then:                                          ; preds = %entry
  %3 = load i32, ptr %start, align 4
  %offset2 = getelementptr inbounds %"class.icu_75::PossibleWord", ptr %this1, i32 0, i32 2
  store i32 %3, ptr %offset2, align 4
  %4 = load ptr, ptr %dict.addr, align 8
  %5 = load ptr, ptr %text.addr, align 8
  %6 = load i32, ptr %rangeEnd.addr, align 4
  %7 = load i32, ptr %start, align 4
  %sub = sub nsw i32 %6, %7
  %cuLengths = getelementptr inbounds %"class.icu_75::PossibleWord", ptr %this1, i32 0, i32 5
  %arraydecay = getelementptr inbounds [20 x i32], ptr %cuLengths, i64 0, i64 0
  %cpLengths = getelementptr inbounds %"class.icu_75::PossibleWord", ptr %this1, i32 0, i32 6
  %arraydecay3 = getelementptr inbounds [20 x i32], ptr %cpLengths, i64 0, i64 0
  %prefix = getelementptr inbounds %"class.icu_75::PossibleWord", ptr %this1, i32 0, i32 1
  %vtable = load ptr, ptr %4, align 8
  %vfn = getelementptr inbounds ptr, ptr %vtable, i64 2
  %8 = load ptr, ptr %vfn, align 8
  %call4 = call noundef i32 %8(ptr noundef nonnull align 8 dereferenceable(8) %4, ptr noundef %5, i32 noundef %sub, i32 noundef 20, ptr noundef %arraydecay, ptr noundef %arraydecay3, ptr noundef null, ptr noundef %prefix)
  %count = getelementptr inbounds %"class.icu_75::PossibleWord", ptr %this1, i32 0, i32 0
  store i32 %call4, ptr %count, align 4
  %count5 = getelementptr inbounds %"class.icu_75::PossibleWord", ptr %this1, i32 0, i32 0
  %9 = load i32, ptr %count5, align 4
  %cmp6 = icmp sle i32 %9, 0
  br i1 %cmp6, label %if.then7, label %if.end

if.then7:                                         ; preds = %if.then
  %10 = load ptr, ptr %text.addr, align 8
  %11 = load i32, ptr %start, align 4
  %conv8 = sext i32 %11 to i64
  call void @utext_setNativeIndex_75(ptr noundef %10, i64 noundef %conv8)
  br label %if.end

if.end:                                           ; preds = %if.then7, %if.then
  br label %if.end9

if.end9:                                          ; preds = %if.end, %entry
  %count10 = getelementptr inbounds %"class.icu_75::PossibleWord", ptr %this1, i32 0, i32 0
  %12 = load i32, ptr %count10, align 4
  %cmp11 = icmp sgt i32 %12, 0
  br i1 %cmp11, label %if.then12, label %if.end17

if.then12:                                        ; preds = %if.end9
  %13 = load ptr, ptr %text.addr, align 8
  %14 = load i32, ptr %start, align 4
  %cuLengths13 = getelementptr inbounds %"class.icu_75::PossibleWord", ptr %this1, i32 0, i32 5
  %count14 = getelementptr inbounds %"class.icu_75::PossibleWord", ptr %this1, i32 0, i32 0
  %15 = load i32, ptr %count14, align 4
  %sub15 = sub nsw i32 %15, 1
  %idxprom = sext i32 %sub15 to i64
  %arrayidx = getelementptr inbounds [20 x i32], ptr %cuLengths13, i64 0, i64 %idxprom
  %16 = load i32, ptr %arrayidx, align 4
  %add = add nsw i32 %14, %16
  %conv16 = sext i32 %add to i64
  call void @utext_setNativeIndex_75(ptr noundef %13, i64 noundef %conv16)
  br label %if.end17

if.end17:                                         ; preds = %if.then12, %if.end9
  %count18 = getelementptr inbounds %"class.icu_75::PossibleWord", ptr %this1, i32 0, i32 0
  %17 = load i32, ptr %count18, align 4
  %sub19 = sub nsw i32 %17, 1
  %current = getelementptr inbounds %"class.icu_75::PossibleWord", ptr %this1, i32 0, i32 4
  store i32 %sub19, ptr %current, align 4
  %current20 = getelementptr inbounds %"class.icu_75::PossibleWord", ptr %this1, i32 0, i32 4
  %18 = load i32, ptr %current20, align 4
  %mark = getelementptr inbounds %"class.icu_75::PossibleWord", ptr %this1, i32 0, i32 3
  store i32 %18, ptr %mark, align 4
  %count21 = getelementptr inbounds %"class.icu_75::PossibleWord", ptr %this1, i32 0, i32 0
  %19 = load i32, ptr %count21, align 4
  ret i32 %19
}