; Function Attrs: mustprogress uwtable
define noundef i32 @_ZN6icu_7512PossibleWord10candidatesEP5UTextPNS_17DictionaryMatcherEi(ptr noundef nonnull align 4 dereferenceable(180) %this, ptr noundef %text, ptr noundef %dict, i32 noundef %rangeEnd) local_unnamed_addr #0 align 2 {
entry:
  %call = tail call i64 @utext_getNativeIndex_75(ptr noundef %text)
  %conv = trunc i64 %call to i32
  %offset = getelementptr inbounds i8, ptr %this, i64 8
  %0 = load i32, ptr %offset, align 4
  %cmp.not = icmp eq i32 %0, %conv
  br i1 %cmp.not, label %if.end9, label %if.then

if.then:                                          ; preds = %entry
  store i32 %conv, ptr %offset, align 4
  %sub = sub nsw i32 %rangeEnd, %conv
  %cuLengths = getelementptr inbounds i8, ptr %this, i64 20
  %cpLengths = getelementptr inbounds i8, ptr %this, i64 100
  %prefix = getelementptr inbounds i8, ptr %this, i64 4
  %vtable = load ptr, ptr %dict, align 8
  %vfn = getelementptr inbounds i8, ptr %vtable, i64 16
  %1 = load ptr, ptr %vfn, align 8
  %call4 = tail call noundef i32 %1(ptr noundef nonnull align 8 dereferenceable(8) %dict, ptr noundef %text, i32 noundef %sub, i32 noundef 20, ptr noundef nonnull %cuLengths, ptr noundef nonnull %cpLengths, ptr noundef null, ptr noundef nonnull %prefix)
  store i32 %call4, ptr %this, align 4
  %cmp6 = icmp slt i32 %call4, 1
  br i1 %cmp6, label %if.then7, label %if.then12

if.then7:                                         ; preds = %if.then
  %sext = shl i64 %call, 32
  %conv8 = ashr exact i64 %sext, 32
  tail call void @utext_setNativeIndex_75(ptr noundef %text, i64 noundef %conv8)
  br label %if.end9

if.end9:                                          ; preds = %if.then7, %entry
  %.pr = load i32, ptr %this, align 4
  %cmp11 = icmp sgt i32 %.pr, 0
  br i1 %cmp11, label %if.then12, label %if.end17

if.then12:                                        ; preds = %if.then, %if.end9
  %2 = phi i32 [ %.pr, %if.end9 ], [ %call4, %if.then ]
  %cuLengths13 = getelementptr inbounds i8, ptr %this, i64 20
  %sub15 = add nsw i32 %2, -1
  %idxprom = zext nneg i32 %sub15 to i64
  %arrayidx = getelementptr inbounds [20 x i32], ptr %cuLengths13, i64 0, i64 %idxprom
  %3 = load i32, ptr %arrayidx, align 4
  %add = add nsw i32 %3, %conv
  %conv16 = sext i32 %add to i64
  tail call void @utext_setNativeIndex_75(ptr noundef %text, i64 noundef %conv16)
  %.pre = load i32, ptr %this, align 4
  br label %if.end17

if.end17:                                         ; preds = %if.then12, %if.end9
  %4 = phi i32 [ %.pre, %if.then12 ], [ %.pr, %if.end9 ]
  %sub19 = add nsw i32 %4, -1
  %current = getelementptr inbounds i8, ptr %this, i64 16
  store i32 %sub19, ptr %current, align 4
  %mark = getelementptr inbounds i8, ptr %this, i64 12
  store i32 %sub19, ptr %mark, align 4
  ret i32 %4
}